target datalayout = "e-m:e-p270:32:32-p271:32:32-p272:64:64-i64:64-i128:128-f80:128-n8:16:32:64-S128"
target triple = "x86_64-unknown-linux-gnu"

%class.rational = type { %class.mpq }
%class.mpq = type { %class.mpz, %class.mpz }
%class.mpz = type { i32, i8, ptr }
%"class.smt::pb_sls" = type { ptr }
%class.params_ref = type { ptr }
%"struct.smt::pb_sls::imp" = type { ptr, %class.pb_util, %class.mpz_manager, %class.th_rewriter, %class.vector.1, %class.ref_vector, %class.ref, %class.vector.1, %class.vector, %class.rational, %class.rational, %class.vector.3, %class.vector.3, %class.svector, %class.svector, %class.ref_vector, %class.obj_map, %class.ptr_vector, %"class.smt::index_set", %"class.smt::index_set", i32, i32, %class.random_gen, %class._scoped_numeral, %"struct.smt::pb_sls::imp::stats" }
%class.pb_util = type { ptr, i32, %class.vector, %class.vector.0, %class.rational }
%class.vector.0 = type { ptr }
%class.mpz_manager = type { %class.small_object_allocator, %"class.std::recursive_mutex", %class.mpn_manager, i32, %class.mpz, %class.mpz }
%class.small_object_allocator = type { [32 x ptr], [32 x ptr], i64 }
%"class.std::recursive_mutex" = type { %"class.std::__recursive_mutex_base" }
%"class.std::__recursive_mutex_base" = type { %union.pthread_mutex_t }
%union.pthread_mutex_t = type { %struct.__pthread_mutex_s }
%struct.__pthread_mutex_s = type { i32, i32, i32, i32, i32, i16, i16, %struct.__pthread_internal_list }
%struct.__pthread_internal_list = type { ptr, ptr }
%class.mpn_manager = type { i8 }
%class.th_rewriter = type { ptr, %class.params_ref }
%class.ref = type { ptr }
%class.vector.1 = type { ptr }
%class.vector = type { ptr }
%class.vector.3 = type { ptr }
%class.svector = type { %class.vector.4 }
%class.vector.4 = type { ptr }
%class.ref_vector = type { %class.ref_vector_core }
%class.ref_vector_core = type { %class.ref_manager_wrapper, %class.ptr_vector }
%class.ref_manager_wrapper = type { ptr }
%class.obj_map = type { %class.core_hashtable }
%class.core_hashtable = type <{ ptr, i32, i32, i32, [4 x i8] }>
%class.ptr_vector = type { %class.vector.2 }
%class.vector.2 = type { ptr }
%"class.smt::index_set" = type { %class.svector.5, %class.svector.5 }
%class.svector.5 = type { %class.vector.6 }
%class.vector.6 = type { ptr }
%class.random_gen = type { i32 }
%class._scoped_numeral = type { ptr, %class.mpz }
%"struct.smt::pb_sls::imp::stats" = type { i32, i32 }
%"struct.smt::pb_sls::imp::clause" = type <{ %class.svector.57, %class._scoped_numeral_vector, %class._scoped_numeral, %class._scoped_numeral, i8, [7 x i8] }>
%class.svector.57 = type { %class.vector.58 }
%class.vector.58 = type { ptr }
%class._scoped_numeral_vector = type { %class.svector.59, ptr }
%class.svector.59 = type { %class.vector.60 }
%class.vector.60 = type { ptr }

; Function Attrs: mustprogress nounwind uwtable
define linkonce_odr hidden noundef nonnull align 8 dereferenceable(73) ptr @_ZN6vectorIN3smt6pb_sls3imp6clauseELb1EjEixEj(ptr noundef nonnull align 8 dereferenceable(8) %this, i32 noundef %idx) #4 comdat align 2 {
entry:
  %this.addr = alloca ptr, align 8
  %idx.addr = alloca i32, align 4
  store ptr %this, ptr %this.addr, align 8
  store i32 %idx, ptr %idx.addr, align 4
  %this1 = load ptr, ptr %this.addr, align 8
  %m_data = getelementptr inbounds %class.vector.1, ptr %this1, i32 0, i32 0
  %0 = load ptr, ptr %m_data, align 8
  %1 = load i32, ptr %idx.addr, align 4
  %idxprom = zext i32 %1 to i64
  %arrayidx = getelementptr inbounds %"struct.smt::pb_sls::imp::clause", ptr %0, i64 %idxprom
  ret ptr %arrayidx
}

; Function Attrs: mustprogress uwtable
define linkonce_odr hidden noundef zeroext i1 @_ZN3smt6pb_sls3imp10soft_holdsEj(ptr noundef nonnull align 8 dereferenceable(960) %this, i32 noundef %index) #5 comdat align 2 {
entry:
  %this.addr = alloca ptr, align 8
  %index.addr = alloca i32, align 4
  store ptr %this, ptr %this.addr, align 8
  store i32 %index, ptr %index.addr, align 4
  %this1 = load ptr, ptr %this.addr, align 8
  %m_soft = getelementptr inbounds %"struct.smt::pb_sls::imp", ptr %this1, i32 0, i32 7
  %0 = load i32, ptr %index.addr, align 4
  %call = call noundef nonnull align 8 dereferenceable(73) ptr @_ZN6vectorIN3smt6pb_sls3imp6clauseELb1EjEixEj(ptr noundef nonnull align 8 dereferenceable(8) %m_soft, i32 noundef %0)
  %call2 = call noundef zeroext i1 @_ZN3smt6pb_sls3imp4evalERNS1_6clauseE(ptr noundef nonnull align 8 dereferenceable(960) %this1, ptr noundef nonnull align 8 dereferenceable(73) %call)
  ret i1 %call2
}

; Function Attrs: mustprogress uwtable
define hidden noundef zeroext i1 @_ZN3smt6pb_sls10soft_holdsEj(ptr noundef nonnull align 8 dereferenceable(8) %this, i32 noundef %index) #5 align 2 {
entry:
  %this.addr = alloca ptr, align 8
  %index.addr = alloca i32, align 4
  store ptr %this, ptr %this.addr, align 8
  store i32 %index, ptr %index.addr, align 4
  %this1 = load ptr, ptr %this.addr, align 8
  %m_imp = getelementptr inbounds %"class.smt::pb_sls", ptr %this1, i32 0, i32 0
  %0 = load ptr, ptr %m_imp, align 8
  %1 = load i32, ptr %index.addr, align 4
  %call = call noundef zeroext i1 @_ZN3smt6pb_sls3imp10soft_holdsEj(ptr noundef nonnull align 8 dereferenceable(960) %0, i32 noundef %1)
  ret i1 %call
}