; Function Attrs: mustprogress uwtable
define hidden noundef zeroext i1 @_ZN3smt6pb_sls10soft_holdsEj(ptr nocapture noundef nonnull readonly align 8 dereferenceable(8) %this, i32 noundef %index) local_unnamed_addr #3 align 2 {
entry:
  %0 = load ptr, ptr %this, align 8
  %m_soft.i = getelementptr inbounds i8, ptr %0, i64 720
  %1 = load ptr, ptr %m_soft.i, align 8
  %idxprom.i.i = zext i32 %index to i64
  %arrayidx.i.i = getelementptr inbounds %"struct.smt::pb_sls::imp::clause", ptr %1, i64 %idxprom.i.i
  %call2.i = tail call noundef zeroext i1 @_ZN3smt6pb_sls3imp4evalERNS1_6clauseE(ptr noundef nonnull align 8 dereferenceable(960) %0, ptr noundef nonnull align 8 dereferenceable(73) %arrayidx.i.i)
  ret i1 %call2.i
}